target datalayout = "e-m:e-p270:32:32-p271:32:32-p272:64:64-i64:64-i128:128-f80:128-n8:16:32:64-S128"
target triple = "x86_64-pc-linux-gnu"

%struct.AVFilterContext = type { ptr, ptr, ptr, ptr, ptr, i32, ptr, ptr, i32, ptr, ptr, i32, i32, ptr, ptr, ptr, ptr, i32, ptr, i32, i32 }
%struct.MovieContext = type { ptr, i64, double, ptr, ptr, ptr, i32, i32, i64, i64, i32, ptr, ptr, i32, i32, ptr, ptr, ptr }
%struct.MovieStream = type { ptr, ptr, ptr, i64, i64, ptr, i32 }

; Function Attrs: cold nounwind optsize uwtable
define internal void @movie_uninit(ptr noundef %0) #0 {
  %2 = alloca ptr, align 8
  %3 = alloca ptr, align 8
  %4 = alloca i32, align 4
  store ptr %0, ptr %2, align 8, !tbaa !4
  call void @llvm.lifetime.start.p0(i64 8, ptr %3) #11
  %5 = load ptr, ptr %2, align 8, !tbaa !4
  %6 = getelementptr inbounds nuw %struct.AVFilterContext, ptr %5, i32 0, i32 9
  %7 = load ptr, ptr %6, align 8, !tbaa !9
  store ptr %7, ptr %3, align 8, !tbaa !22
  call void @llvm.lifetime.start.p0(i64 4, ptr %4) #11
  store i32 0, ptr %4, align 4, !tbaa !26
  br label %8

8:                                                ; preds = %40, %1
  %9 = load i32, ptr %4, align 4, !tbaa !26
  %10 = load ptr, ptr %2, align 8, !tbaa !4
  %11 = getelementptr inbounds nuw %struct.AVFilterContext, ptr %10, i32 0, i32 8
  %12 = load i32, ptr %11, align 8, !tbaa !101
  %13 = icmp ult i32 %9, %12
  br i1 %13, label %14, label %43

14:                                               ; preds = %8
  %15 = load ptr, ptr %3, align 8, !tbaa !22
  %16 = getelementptr inbounds nuw %struct.MovieContext, ptr %15, i32 0, i32 15
  %17 = load ptr, ptr %16, align 8, !tbaa !73
  %18 = load i32, ptr %4, align 4, !tbaa !26
  %19 = sext i32 %18 to i64
  %20 = getelementptr inbounds %struct.MovieStream, ptr %17, i64 %19
  %21 = getelementptr inbounds nuw %struct.MovieStream, ptr %20, i32 0, i32 1
  %22 = load ptr, ptr %21, align 8, !tbaa !74
  %23 = icmp ne ptr %22, null
  br i1 %23, label %24, label %32

24:                                               ; preds = %14
  %25 = load ptr, ptr %3, align 8, !tbaa !22
  %26 = getelementptr inbounds nuw %struct.MovieContext, ptr %25, i32 0, i32 15
  %27 = load ptr, ptr %26, align 8, !tbaa !73
  %28 = load i32, ptr %4, align 4, !tbaa !26
  %29 = sext i32 %28 to i64
  %30 = getelementptr inbounds %struct.MovieStream, ptr %27, i64 %29
  %31 = getelementptr inbounds nuw %struct.MovieStream, ptr %30, i32 0, i32 2
  call void @avcodec_free_context(ptr noundef %31)
  br label %32

32:                                               ; preds = %24, %14
  %33 = load ptr, ptr %3, align 8, !tbaa !22
  %34 = getelementptr inbounds nuw %struct.MovieContext, ptr %33, i32 0, i32 15
  %35 = load ptr, ptr %34, align 8, !tbaa !73
  %36 = load i32, ptr %4, align 4, !tbaa !26
  %37 = sext i32 %36 to i64
  %38 = getelementptr inbounds %struct.MovieStream, ptr %35, i64 %37
  %39 = getelementptr inbounds nuw %struct.MovieStream, ptr %38, i32 0, i32 5
  call void @av_frame_free(ptr noundef %39)
  br label %40

40:                                               ; preds = %32
  %41 = load i32, ptr %4, align 4, !tbaa !26
  %42 = add nsw i32 %41, 1
  store i32 %42, ptr %4, align 4, !tbaa !26
  br label %8, !llvm.loop !102

43:                                               ; preds = %8
  %44 = load ptr, ptr %3, align 8, !tbaa !22
  %45 = getelementptr inbounds nuw %struct.MovieContext, ptr %44, i32 0, i32 11
  call void @av_packet_free(ptr noundef %45)
  %46 = load ptr, ptr %3, align 8, !tbaa !22
  %47 = getelementptr inbounds nuw %struct.MovieContext, ptr %46, i32 0, i32 15
  call void @av_freep(ptr noundef %47)
  %48 = load ptr, ptr %3, align 8, !tbaa !22
  %49 = getelementptr inbounds nuw %struct.MovieContext, ptr %48, i32 0, i32 16
  call void @av_freep(ptr noundef %49)
  %50 = load ptr, ptr %3, align 8, !tbaa !22
  %51 = getelementptr inbounds nuw %struct.MovieContext, ptr %50, i32 0, i32 12
  %52 = load ptr, ptr %51, align 8, !tbaa !49
  %53 = icmp ne ptr %52, null
  br i1 %53, label %54, label %57

54:                                               ; preds = %43
  %55 = load ptr, ptr %3, align 8, !tbaa !22
  %56 = getelementptr inbounds nuw %struct.MovieContext, ptr %55, i32 0, i32 12
  call void @avformat_close_input(ptr noundef %56)
  br label %57

57:                                               ; preds = %54, %43
  call void @llvm.lifetime.end.p0(i64 4, ptr %4) #11
  call void @llvm.lifetime.end.p0(i64 8, ptr %3) #11
  ret void
}