; Function Attrs: cold nounwind optsize uwtable
define internal void @movie_uninit(ptr noundef readonly captures(none) %0) #0 {
  %2 = getelementptr inbounds nuw i8, ptr %0, i64 72
  %3 = load ptr, ptr %2, align 8, !tbaa !4
  %4 = getelementptr inbounds nuw i8, ptr %0, i64 64
  %5 = load i32, ptr %4, align 8, !tbaa !94
  %.not16 = icmp eq i32 %5, 0
  br i1 %.not16, label %._crit_edge, label %.lr.ph

.lr.ph:                                           ; preds = %1
  %6 = getelementptr inbounds nuw i8, ptr %3, i64 104
  br label %7

7:                                                ; preds = %.lr.ph, %14
  %indvars.iv = phi i64 [ 0, %.lr.ph ], [ %indvars.iv.next, %14 ]
  %8 = load ptr, ptr %6, align 8, !tbaa !66
  %9 = getelementptr inbounds nuw %struct.MovieStream, ptr %8, i64 %indvars.iv
  %10 = getelementptr inbounds nuw i8, ptr %9, i64 8
  %11 = load ptr, ptr %10, align 8, !tbaa !74
  %.not14 = icmp eq ptr %11, null
  br i1 %.not14, label %14, label %12

12:                                               ; preds = %7
  %13 = getelementptr inbounds nuw i8, ptr %9, i64 16
  tail call void @avcodec_free_context(ptr noundef nonnull %13) #13
  %.pre = load ptr, ptr %6, align 8, !tbaa !66
  br label %14

14:                                               ; preds = %12, %7
  %15 = phi ptr [ %.pre, %12 ], [ %8, %7 ]
  %16 = getelementptr inbounds nuw %struct.MovieStream, ptr %15, i64 %indvars.iv, i32 5
  tail call void @av_frame_free(ptr noundef nonnull %16) #13
  %indvars.iv.next = add nuw nsw i64 %indvars.iv, 1
  %17 = load i32, ptr %4, align 8, !tbaa !94
  %18 = zext i32 %17 to i64
  %19 = icmp samesign ult i64 %indvars.iv.next, %18
  br i1 %19, label %7, label %._crit_edge, !llvm.loop !95

._crit_edge:                                      ; preds = %14, %1
  %20 = getelementptr inbounds nuw i8, ptr %3, i64 80
  tail call void @av_packet_free(ptr noundef nonnull %20) #13
  %21 = getelementptr inbounds nuw i8, ptr %3, i64 104
  tail call void @av_freep(ptr noundef nonnull %21) #13
  %22 = getelementptr inbounds nuw i8, ptr %3, i64 112
  tail call void @av_freep(ptr noundef nonnull %22) #13
  %23 = getelementptr inbounds nuw i8, ptr %3, i64 88
  %24 = load ptr, ptr %23, align 8, !tbaa !42
  %.not = icmp eq ptr %24, null
  br i1 %.not, label %26, label %25

25:                                               ; preds = %._crit_edge
  tail call void @avformat_close_input(ptr noundef nonnull %23) #13
  br label %26

26:                                               ; preds = %25, %._crit_edge
  ret void
}